; ModuleID = 'source-C-CXX/6/1113.c'
source_filename = "source-C-CXX/6/1113.c"
target datalayout = "e-m:e-p270:32:32-p271:32:32-p272:64:64-i64:64-f80:128-n8:16:32:64-S128"
target triple = "x86_64-pc-linux-gnu"

@.str = private unnamed_addr constant [7 x i8] c"%s%s%s\00", align 1
@.str.2 = private unnamed_addr constant [3 x i8] c"%s\00", align 1

; Function Attrs: nofree nounwind sspstrong uwtable
define dso_local i32 @main() local_unnamed_addr #0 {
  %1 = alloca [256 x i8], align 16
  %2 = alloca [256 x i8], align 16
  %3 = alloca [256 x i8], align 16
  %4 = getelementptr inbounds [256 x i8], [256 x i8]* %1, i64 0, i64 0
  call void @llvm.lifetime.start.p0i8(i64 256, i8* nonnull %4) #5
  %5 = getelementptr inbounds [256 x i8], [256 x i8]* %2, i64 0, i64 0
  call void @llvm.lifetime.start.p0i8(i64 256, i8* nonnull %5) #5
  %6 = getelementptr inbounds [256 x i8], [256 x i8]* %3, i64 0, i64 0
  call void @llvm.lifetime.start.p0i8(i64 256, i8* nonnull %6) #5
  %7 = call i32 (i8*, ...) @__isoc99_scanf(i8* getelementptr inbounds ([7 x i8], [7 x i8]* @.str, i64 0, i64 0), i8* nonnull %5, i8* nonnull %4, i8* nonnull %6)
  %8 = call i64 @strlen(i8* noundef nonnull %4) #6
  %9 = call i64 @strlen(i8* noundef nonnull %5) #6
  %10 = trunc i64 %9 to i32
  %11 = call i64 @strlen(i8* noundef nonnull %6) #6
  %12 = trunc i64 %11 to i32
  %13 = load i8, i8* %4, align 16
  %14 = icmp sgt i32 %10, 0
  br i1 %14, label %15, label %78

15:                                               ; preds = %0
  %16 = trunc i64 %8 to i32
  %17 = icmp sgt i32 %16, 0
  %18 = and i64 %9, 4294967295
  br i1 %17, label %19, label %40

19:                                               ; preds = %15
  %20 = and i64 %8, 4294967295
  br label %21

21:                                               ; preds = %19, %37
  %22 = phi i64 [ 0, %19 ], [ %38, %37 ]
  %23 = getelementptr inbounds [256 x i8], [256 x i8]* %2, i64 0, i64 %22
  %24 = load i8, i8* %23, align 1, !tbaa !5
  %25 = icmp eq i8 %24, %13
  br i1 %25, label %28, label %37

26:                                               ; preds = %28
  %27 = icmp eq i64 %36, %20
  br i1 %27, label %45, label %28, !llvm.loop !8

28:                                               ; preds = %21, %26
  %29 = phi i64 [ %36, %26 ], [ 0, %21 ]
  %30 = getelementptr inbounds [256 x i8], [256 x i8]* %1, i64 0, i64 %29
  %31 = load i8, i8* %30, align 1, !tbaa !5
  %32 = add nuw nsw i64 %29, %22
  %33 = getelementptr inbounds [256 x i8], [256 x i8]* %2, i64 0, i64 %32
  %34 = load i8, i8* %33, align 1, !tbaa !5
  %35 = icmp eq i8 %31, %34
  %36 = add nuw nsw i64 %29, 1
  br i1 %35, label %26, label %37

37:                                               ; preds = %28, %21
  %38 = add nuw nsw i64 %22, 1
  %39 = icmp eq i64 %38, %18
  br i1 %39, label %78, label %21, !llvm.loop !10

40:                                               ; preds = %15, %51
  %41 = phi i64 [ %52, %51 ], [ 0, %15 ]
  %42 = getelementptr inbounds [256 x i8], [256 x i8]* %2, i64 0, i64 %41
  %43 = load i8, i8* %42, align 1, !tbaa !5
  %44 = icmp eq i8 %43, %13
  br i1 %44, label %45, label %51

45:                                               ; preds = %40, %26
  %46 = phi i64 [ %22, %26 ], [ %41, %40 ]
  %47 = trunc i64 %46 to i32
  %48 = icmp eq i32 %47, 0
  br i1 %48, label %62, label %49

49:                                               ; preds = %45
  %50 = and i64 %46, 4294967295
  br label %54

51:                                               ; preds = %40
  %52 = add nuw nsw i64 %41, 1
  %53 = icmp eq i64 %52, %18
  br i1 %53, label %78, label %40, !llvm.loop !10

54:                                               ; preds = %49, %54
  %55 = phi i64 [ 0, %49 ], [ %60, %54 ]
  %56 = getelementptr inbounds [256 x i8], [256 x i8]* %2, i64 0, i64 %55
  %57 = load i8, i8* %56, align 1, !tbaa !5
  %58 = sext i8 %57 to i32
  %59 = call i32 @putchar(i32 %58)
  %60 = add nuw nsw i64 %55, 1
  %61 = icmp eq i64 %60, %50
  br i1 %61, label %62, label %54, !llvm.loop !11

62:                                               ; preds = %54, %45
  %63 = call i32 (i8*, ...) @printf(i8* nonnull dereferenceable(1) getelementptr inbounds ([3 x i8], [3 x i8]* @.str.2, i64 0, i64 0), i8* nonnull %6)
  %64 = add i32 %47, %12
  %65 = icmp slt i32 %64, %10
  br i1 %65, label %66, label %80

66:                                               ; preds = %62
  %67 = sext i32 %64 to i64
  %68 = shl i64 %9, 32
  %69 = ashr exact i64 %68, 32
  br label %70

70:                                               ; preds = %66, %70
  %71 = phi i64 [ %67, %66 ], [ %76, %70 ]
  %72 = getelementptr inbounds [256 x i8], [256 x i8]* %2, i64 0, i64 %71
  %73 = load i8, i8* %72, align 1, !tbaa !5
  %74 = sext i8 %73 to i32
  %75 = call i32 @putchar(i32 %74)
  %76 = add nsw i64 %71, 1
  %77 = icmp slt i64 %76, %69
  br i1 %77, label %70, label %80, !llvm.loop !12

78:                                               ; preds = %51, %37, %0
  %79 = call i32 (i8*, ...) @printf(i8* nonnull dereferenceable(1) getelementptr inbounds ([3 x i8], [3 x i8]* @.str.2, i64 0, i64 0), i8* nonnull %5)
  br label %80

80:                                               ; preds = %70, %62, %78
  call void @llvm.lifetime.end.p0i8(i64 256, i8* nonnull %6) #5
  call void @llvm.lifetime.end.p0i8(i64 256, i8* nonnull %5) #5
  call void @llvm.lifetime.end.p0i8(i64 256, i8* nonnull %4) #5
  ret i32 0
}

; Function Attrs: argmemonly mustprogress nofree nosync nounwind willreturn
declare void @llvm.lifetime.start.p0i8(i64 immarg, i8* nocapture) #1

; Function Attrs: nofree nounwind
declare noundef i32 @__isoc99_scanf(i8* nocapture noundef readonly, ...) local_unnamed_addr #2

; Function Attrs: argmemonly mustprogress nofree nounwind readonly willreturn
declare i64 @strlen(i8* nocapture) local_unnamed_addr #3

; Function Attrs: nofree nounwind
declare noundef i32 @printf(i8* nocapture noundef readonly, ...) local_unnamed_addr #2

; Function Attrs: argmemonly mustprogress nofree nosync nounwind willreturn
declare void @llvm.lifetime.end.p0i8(i64 immarg, i8* nocapture) #1

; Function Attrs: nofree nounwind
declare noundef i32 @putchar(i32 noundef) local_unnamed_addr #4


!llvm.module.flags = !{!0, !1, !2, !3}
!llvm.ident = !{!4}

!0 = !{i32 1, !"wchar_size", i32 4}
!1 = !{i32 7, !"PIC Level", i32 2}
!2 = !{i32 7, !"PIE Level", i32 2}
!3 = !{i32 7, !"uwtable", i32 1}
!4 = !{!"clang version 13.0.0"}
!5 = !{!6, !6, i64 0}
!6 = !{!"omnipotent char", !7, i64 0}
!7 = !{!"Simple C/C++ TBAA"}
!8 = distinct !{!8, !9}
!9 = !{!"llvm.loop.mustprogress"}
!10 = distinct !{!10, !9}
!11 = distinct !{!11, !9}
!12 = distinct !{!12, !9}
